target datalayout = "e-m:e-p270:32:32-p271:32:32-p272:64:64-i64:64-i128:128-f80:128-n8:16:32:64-S128"
target triple = "x86_64-pc-linux-gnu"

%class.LogTagSet = type { ptr, i64, [5 x i32], [4 x i8], %class.LogOutputList, %class.LogDecorators, ptr }
%class.LogOutputList = type <{ [6 x ptr], i32, [4 x i8] }>
%class.LogDecorators = type { i32 }
%class.Dictionary = type { i32, ptr, ptr }

@.str = private unnamed_addr constant [33 x i8] c"Dictionary start size: %lu (%lu)\00", align 1
@_ZN16LogTagSetMappingILN6LogTag4typeE16ELS1_75ELS1_30ELS1_0ELS1_0ELS1_0EE7_tagsetE = linkonce_odr hidden global %class.LogTagSet zeroinitializer, comdat, align 8

; Function Attrs: mustprogress nounwind uwtable
define linkonce_odr hidden noundef zeroext i1 @_ZNK13LogOutputList8is_levelEN8LogLevel4typeE(ptr noundef nonnull align 8 dereferenceable(52) %0, i32 noundef %1) #1 comdat align 2 {
  %3 = alloca ptr, align 8
  %4 = alloca i32, align 4
  store ptr %0, ptr %3, align 8
  store i32 %1, ptr %4, align 4
  %5 = load ptr, ptr %3, align 8
  %6 = getelementptr inbounds %class.LogOutputList, ptr %5, i32 0, i32 0
  %7 = load i32, ptr %4, align 4
  %8 = zext i32 %7 to i64
  %9 = getelementptr inbounds [6 x ptr], ptr %6, i64 0, i64 %8
  %10 = load volatile ptr, ptr %9, align 8
  %11 = icmp ne ptr %10, null
  ret i1 %11
}

; Function Attrs: mustprogress nounwind uwtable
define linkonce_odr hidden noundef zeroext i1 @_ZNK9LogTagSet8is_levelEN8LogLevel4typeE(ptr noundef nonnull align 8 dereferenceable(112) %0, i32 noundef %1) #1 comdat align 2 {
  %3 = alloca ptr, align 8
  %4 = alloca i32, align 4
  store ptr %0, ptr %3, align 8
  store i32 %1, ptr %4, align 4
  %5 = load ptr, ptr %3, align 8
  %6 = getelementptr inbounds %class.LogTagSet, ptr %5, i32 0, i32 4
  %7 = load i32, ptr %4, align 4
  %8 = call noundef zeroext i1 @_ZNK13LogOutputList8is_levelEN8LogLevel4typeE(ptr noundef nonnull align 8 dereferenceable(52) %6, i32 noundef %7)
  ret i1 %8
}

; Function Attrs: mustprogress nounwind uwtable
define linkonce_odr hidden noundef nonnull align 8 dereferenceable(112) ptr @_ZN16LogTagSetMappingILN6LogTag4typeE16ELS1_75ELS1_30ELS1_0ELS1_0ELS1_0EE6tagsetEv() #1 comdat align 2 {
  ret ptr @_ZN16LogTagSetMappingILN6LogTag4typeE16ELS1_75ELS1_30ELS1_0ELS1_0ELS1_0EE7_tagsetE
}

; Function Attrs: mustprogress nounwind uwtable
define linkonce_odr hidden noundef i32 @_ZmiN5Mutex4RankEi(i32 noundef %0, i32 noundef %1) #1 comdat {
  %3 = alloca i32, align 4
  %4 = alloca i32, align 4
  %5 = alloca i32, align 4
  store i32 %0, ptr %3, align 4
  store i32 %1, ptr %4, align 4
  %6 = load i32, ptr %3, align 4
  %7 = load i32, ptr %4, align 4
  %8 = sub nsw i32 %6, %7
  store i32 %8, ptr %5, align 4
  %9 = load i32, ptr %5, align 4
  ret i32 %9
}

; Function Attrs: mustprogress nounwind uwtable
define linkonce_odr hidden noundef zeroext i1 @_ZN7LogImplILN6LogTag4typeE16ELS1_75ELS1_30ELS1_0ELS1_0ELS1_0EE8is_levelEN8LogLevel4typeE(i32 noundef %0) #1 comdat align 2 {
  %2 = alloca i32, align 4
  store i32 %0, ptr %2, align 4
  %3 = call noundef nonnull align 8 dereferenceable(112) ptr @_ZN16LogTagSetMappingILN6LogTag4typeE16ELS1_75ELS1_30ELS1_0ELS1_0ELS1_0EE6tagsetEv()
  %4 = load i32, ptr %2, align 4
  %5 = call noundef zeroext i1 @_ZNK9LogTagSet8is_levelEN8LogLevel4typeE(ptr noundef nonnull align 8 dereferenceable(112) %3, i32 noundef %4)
  ret i1 %5
}

; Function Attrs: mustprogress nounwind uwtable
define linkonce_odr hidden noundef i64 @_Z4MAX2ImET_S0_S0_(i64 noundef %0, i64 noundef %1) #1 comdat {
  %3 = alloca i64, align 8
  %4 = alloca i64, align 8
  store i64 %0, ptr %3, align 8
  store i64 %1, ptr %4, align 8
  %5 = load i64, ptr %3, align 8
  %6 = load i64, ptr %4, align 8
  %7 = icmp ugt i64 %5, %6
  br i1 %7, label %8, label %10

8:                                                ; preds = %2
  %9 = load i64, ptr %3, align 8
  br label %12

10:                                               ; preds = %2
  %11 = load i64, ptr %4, align 8
  br label %12

12:                                               ; preds = %10, %8
  %13 = phi i64 [ %9, %8 ], [ %11, %10 ]
  ret i64 %13
}

; Function Attrs: mustprogress nounwind uwtable
define linkonce_odr hidden noundef i64 @_Z9ceil_log2ImTnNSt9enable_ifIXcvbsr3std11is_integralIT_EE5valueEiE4typeELi0EES1_S1_(i64 noundef %0) #1 comdat {
  %2 = alloca i64, align 8
  %3 = alloca i64, align 8
  store i64 %0, ptr %2, align 8
  store i64 1, ptr %3, align 8
  br label %4

4:                                                ; preds = %10, %1
  %5 = load i64, ptr %3, align 8
  %6 = shl i64 1, %5
  %7 = load i64, ptr %2, align 8
  %8 = icmp ult i64 %6, %7
  br i1 %8, label %9, label %13

9:                                                ; preds = %4
  br label %10

10:                                               ; preds = %9
  %11 = load i64, ptr %3, align 8
  %12 = add i64 %11, 1
  store i64 %12, ptr %3, align 8
  br label %4, !llvm.loop !6

13:                                               ; preds = %4
  %14 = load i64, ptr %3, align 8
  ret i64 %14
}

; Function Attrs: mustprogress nounwind uwtable
define hidden void @_ZN10DictionaryC2EP15ClassLoaderDatam(ptr noundef nonnull align 8 dereferenceable(24) %0, ptr noundef %1, i64 noundef %2) unnamed_addr #1 align 2 {
  %4 = alloca i64, align 8
  %5 = alloca i8, align 1
  %6 = alloca i64, align 8
  %7 = alloca ptr, align 8
  %8 = alloca ptr, align 8
  %9 = alloca i64, align 8
  %10 = alloca i64, align 8
  %11 = alloca i64, align 8
  store ptr %0, ptr %7, align 8
  store ptr %1, ptr %8, align 8
  store i64 %2, ptr %9, align 8
  %12 = load ptr, ptr %7, align 8
  %13 = getelementptr inbounds %class.Dictionary, ptr %12, i32 0, i32 0
  store i32 0, ptr %13, align 8
  %14 = getelementptr inbounds %class.Dictionary, ptr %12, i32 0, i32 2
  %15 = load ptr, ptr %8, align 8
  store ptr %15, ptr %14, align 8
  %16 = load i64, ptr %9, align 8
  %17 = call noundef i64 @_Z9ceil_log2ImTnNSt9enable_ifIXcvbsr3std11is_integralIT_EE5valueEiE4typeELi0EES1_S1_(i64 noundef %16)
  %18 = call noundef i64 @_Z4MAX2ImET_S0_S0_(i64 noundef %17, i64 noundef 2)
  store i64 %18, ptr %10, align 8
  %19 = load i64, ptr %10, align 8
  %20 = shl i64 1, %19
  store i64 %20, ptr %11, align 8
  %21 = call noundef zeroext i1 @_ZN7LogImplILN6LogTag4typeE16ELS1_75ELS1_30ELS1_0ELS1_0ELS1_0EE8is_levelEN8LogLevel4typeE(i32 noundef 3)
  br i1 %21, label %23, label %22

22:                                               ; preds = %3
  br label %26

23:                                               ; preds = %3
  %24 = load i64, ptr %11, align 8
  %25 = load i64, ptr %10, align 8
  call void (ptr, ...) @_ZN7LogImplILN6LogTag4typeE16ELS1_75ELS1_30ELS1_0ELS1_0ELS1_0EE5writeILN8LogLevel4typeE3EEEvPKcz(ptr noundef @.str, i64 noundef %24, i64 noundef %25)
  br label %26

26:                                               ; preds = %23, %22
  store i64 88, ptr %6, align 8
  %27 = load i64, ptr %6, align 8
  store i64 %27, ptr %4, align 8
  store i8 1, ptr %5, align 1
  %28 = load i64, ptr %4, align 8
  %29 = load i8, ptr %5, align 1
  %30 = call noundef ptr @_Z12AllocateHeapm8MEMFLAGSN17AllocFailStrategy13AllocFailEnumE(i64 noundef %28, i8 noundef zeroext %29, i32 noundef 0) #5
  %31 = load i64, ptr %10, align 8
  %32 = call noundef i32 @_ZmiN5Mutex4RankEi(i32 noundef 21, i32 noundef 2)
  call void @_ZN19ConcurrentHashTableIN10Dictionary6ConfigEL8MEMFLAGS1EEC2EmmmbN5Mutex4RankEPv(ptr noundef nonnull align 8 dereferenceable(88) %30, i64 noundef %31, i64 noundef 24, i64 noundef 100, i1 noundef zeroext false, i32 noundef %32, ptr noundef null)
  %33 = getelementptr inbounds %class.Dictionary, ptr %12, i32 0, i32 1
  store ptr %30, ptr %33, align 8
  ret void
}