; Function Attrs: mustprogress nounwind uwtable
define hidden void @_ZN10DictionaryC2EP15ClassLoaderDatam(ptr nocapture noundef nonnull writeonly align 8 dereferenceable(24) %0, ptr noundef %1, i64 noundef %2) unnamed_addr #0 align 2 {
  store i32 0, ptr %0, align 8
  %4 = getelementptr inbounds i8, ptr %0, i64 16
  store ptr %1, ptr %4, align 8
  br label %5

5:                                                ; preds = %5, %3
  %.0.i = phi i64 [ 1, %3 ], [ %8, %5 ]
  %6 = shl nuw i64 1, %.0.i
  %7 = icmp ult i64 %6, %2
  %8 = add i64 %.0.i, 1
  br i1 %7, label %5, label %_Z9ceil_log2ImTnNSt9enable_ifIXcvbsr3std11is_integralIT_EE5valueEiE4typeELi0EES1_S1_.exit, !llvm.loop !6

_Z9ceil_log2ImTnNSt9enable_ifIXcvbsr3std11is_integralIT_EE5valueEiE4typeELi0EES1_S1_.exit: ; preds = %5
  %9 = tail call noundef i64 @llvm.umax.i64(i64 %.0.i, i64 2)
  %10 = load volatile ptr, ptr getelementptr inbounds (i8, ptr @_ZN16LogTagSetMappingILN6LogTag4typeE16ELS1_75ELS1_30ELS1_0ELS1_0ELS1_0EE7_tagsetE, i64 64), align 8
  %.not = icmp eq ptr %10, null
  br i1 %.not, label %13, label %11

11:                                               ; preds = %_Z9ceil_log2ImTnNSt9enable_ifIXcvbsr3std11is_integralIT_EE5valueEiE4typeELi0EES1_S1_.exit
  %12 = shl nuw i64 1, %9
  tail call void (ptr, ...) @_ZN7LogImplILN6LogTag4typeE16ELS1_75ELS1_30ELS1_0ELS1_0ELS1_0EE5writeILN8LogLevel4typeE3EEEvPKcz(ptr noundef nonnull @.str, i64 noundef %12, i64 noundef %9)
  br label %13

13:                                               ; preds = %_Z9ceil_log2ImTnNSt9enable_ifIXcvbsr3std11is_integralIT_EE5valueEiE4typeELi0EES1_S1_.exit, %11
  %14 = tail call noundef ptr @_Z12AllocateHeapm8MEMFLAGSN17AllocFailStrategy13AllocFailEnumE(i64 noundef 88, i8 noundef zeroext 1, i32 noundef 0) #15
  tail call void @_ZN19ConcurrentHashTableIN10Dictionary6ConfigEL8MEMFLAGS1EEC2EmmmbN5Mutex4RankEPv(ptr noundef nonnull align 8 dereferenceable(88) %14, i64 noundef %9, i64 noundef 24, i64 noundef 100, i1 noundef zeroext false, i32 noundef 19, ptr noundef null)
  %15 = getelementptr inbounds i8, ptr %0, i64 8
  store ptr %14, ptr %15, align 8
  ret void
}